; ModuleID = 'source-C-CXX/26/565.c'
source_filename = "source-C-CXX/26/565.c"
target datalayout = "e-m:e-p270:32:32-p271:32:32-p272:64:64-i64:64-f80:128-n8:16:32:64-S128"
target triple = "x86_64-pc-linux-gnu"

@.str = private unnamed_addr constant [4 x i8] c"%d\0A\00", align 1
@.str.1 = private unnamed_addr constant [12 x i8] c"%lf %lf %lf\00", align 1
@.str.2 = private unnamed_addr constant [17 x i8] c"x1=%.5f;x2=%.5f\0A\00", align 1
@.str.3 = private unnamed_addr constant [12 x i8] c"x1=x2=%.5f\0A\00", align 1
@.str.4 = private unnamed_addr constant [29 x i8] c"x1=%.5f+%.5fi;x2=%.5f-%.5fi\0A\00", align 1

; Function Attrs: nofree nounwind sspstrong uwtable
define dso_local i32 @main() local_unnamed_addr #0 {
  %1 = alloca i32, align 4
  %2 = alloca double, align 8
  %3 = alloca double, align 8
  %4 = alloca double, align 8
  %5 = bitcast i32* %1 to i8*
  call void @llvm.lifetime.start.p0i8(i64 4, i8* nonnull %5) #4
  %6 = bitcast double* %2 to i8*
  call void @llvm.lifetime.start.p0i8(i64 8, i8* nonnull %6) #4
  %7 = bitcast double* %3 to i8*
  call void @llvm.lifetime.start.p0i8(i64 8, i8* nonnull %7) #4
  %8 = bitcast double* %4 to i8*
  call void @llvm.lifetime.start.p0i8(i64 8, i8* nonnull %8) #4
  %9 = call i32 (i8*, ...) @__isoc99_scanf(i8* getelementptr inbounds ([4 x i8], [4 x i8]* @.str, i64 0, i64 0), i32* nonnull %1)
  %10 = load i32, i32* %1, align 4, !tbaa !5
  %11 = icmp sgt i32 %10, 0
  br i1 %11, label %12, label %85

12:                                               ; preds = %0, %81
  %13 = phi i32 [ %82, %81 ], [ 0, %0 ]
  %14 = call i32 (i8*, ...) @__isoc99_scanf(i8* getelementptr inbounds ([12 x i8], [12 x i8]* @.str.1, i64 0, i64 0), double* nonnull %2, double* nonnull %3, double* nonnull %4)
  %15 = load double, double* %3, align 8, !tbaa !9
  %16 = fmul double %15, %15
  %17 = load double, double* %2, align 8, !tbaa !9
  %18 = fmul double %17, 4.000000e+00
  %19 = load double, double* %4, align 8, !tbaa !9
  %20 = fmul double %18, %19
  %21 = fsub double %16, %20
  %22 = fcmp ogt double %21, 0.000000e+00
  br i1 %22, label %23, label %37

23:                                               ; preds = %12
  %24 = call double @sqrt(double %21) #4
  %25 = fsub double %24, %15
  %26 = load double, double* %2, align 8, !tbaa !9
  %27 = fmul double %26, 2.000000e+00
  %28 = fdiv double %25, %27
  %29 = load double, double* %3, align 8, !tbaa !9
  %30 = fneg double %29
  %31 = call double @sqrt(double %21) #4
  %32 = fsub double %30, %31
  %33 = load double, double* %2, align 8, !tbaa !9
  %34 = fmul double %33, 2.000000e+00
  %35 = fdiv double %32, %34
  %36 = call i32 (i8*, ...) @printf(i8* nonnull dereferenceable(1) getelementptr inbounds ([17 x i8], [17 x i8]* @.str.2, i64 0, i64 0), double %28, double %35)
  br label %37

37:                                               ; preds = %23, %12
  %38 = fcmp oeq double %21, 0.000000e+00
  br i1 %38, label %39, label %47

39:                                               ; preds = %37
  %40 = load double, double* %3, align 8, !tbaa !9
  %41 = call double @sqrt(double %21) #4
  %42 = fsub double %41, %40
  %43 = load double, double* %2, align 8, !tbaa !9
  %44 = fmul double %43, 2.000000e+00
  %45 = fdiv double %42, %44
  %46 = call i32 (i8*, ...) @printf(i8* nonnull dereferenceable(1) getelementptr inbounds ([12 x i8], [12 x i8]* @.str.3, i64 0, i64 0), double %45)
  br label %47

47:                                               ; preds = %39, %37
  %48 = fcmp olt double %21, 0.000000e+00
  br i1 %48, label %49, label %81

49:                                               ; preds = %47
  %50 = load double, double* %3, align 8, !tbaa !9
  %51 = fcmp oeq double %50, 0.000000e+00
  br i1 %51, label %52, label %63

52:                                               ; preds = %49
  %53 = fneg double %21
  %54 = call double @sqrt(double %53) #4
  %55 = load double, double* %2, align 8, !tbaa !9
  %56 = fmul double %55, 2.000000e+00
  %57 = fdiv double %54, %56
  %58 = call double @sqrt(double %53) #4
  %59 = load double, double* %2, align 8, !tbaa !9
  %60 = fmul double %59, 2.000000e+00
  %61 = fdiv double %58, %60
  %62 = call i32 (i8*, ...) @printf(i8* nonnull dereferenceable(1) getelementptr inbounds ([29 x i8], [29 x i8]* @.str.4, i64 0, i64 0), double 0.000000e+00, double %57, double 0.000000e+00, double %61)
  br label %81

63:                                               ; preds = %49
  %64 = fneg double %50
  %65 = load double, double* %2, align 8, !tbaa !9
  %66 = fmul double %65, 2.000000e+00
  %67 = fdiv double %64, %66
  %68 = fneg double %21
  %69 = call double @sqrt(double %68) #4
  %70 = load double, double* %2, align 8, !tbaa !9
  %71 = fmul double %70, 2.000000e+00
  %72 = fdiv double %69, %71
  %73 = load double, double* %3, align 8, !tbaa !9
  %74 = fneg double %73
  %75 = fdiv double %74, %71
  %76 = call double @sqrt(double %68) #4
  %77 = load double, double* %2, align 8, !tbaa !9
  %78 = fmul double %77, 2.000000e+00
  %79 = fdiv double %76, %78
  %80 = call i32 (i8*, ...) @printf(i8* nonnull dereferenceable(1) getelementptr inbounds ([29 x i8], [29 x i8]* @.str.4, i64 0, i64 0), double %67, double %72, double %75, double %79)
  br label %81

81:                                               ; preds = %47, %63, %52
  %82 = add nuw nsw i32 %13, 1
  %83 = load i32, i32* %1, align 4, !tbaa !5
  %84 = icmp slt i32 %82, %83
  br i1 %84, label %12, label %85, !llvm.loop !11

85:                                               ; preds = %81, %0
  call void @llvm.lifetime.end.p0i8(i64 8, i8* nonnull %8) #4
  call void @llvm.lifetime.end.p0i8(i64 8, i8* nonnull %7) #4
  call void @llvm.lifetime.end.p0i8(i64 8, i8* nonnull %6) #4
  call void @llvm.lifetime.end.p0i8(i64 4, i8* nonnull %5) #4
  ret i32 0
}

; Function Attrs: argmemonly mustprogress nofree nosync nounwind willreturn
declare void @llvm.lifetime.start.p0i8(i64 immarg, i8* nocapture) #1

; Function Attrs: nofree nounwind
declare noundef i32 @__isoc99_scanf(i8* nocapture noundef readonly, ...) local_unnamed_addr #2

; Function Attrs: nofree nounwind
declare noundef i32 @printf(i8* nocapture noundef readonly, ...) local_unnamed_addr #2

; Function Attrs: mustprogress nofree nounwind willreturn
declare double @sqrt(double) local_unnamed_addr #3

; Function Attrs: argmemonly mustprogress nofree nosync nounwind willreturn
declare void @llvm.lifetime.end.p0i8(i64 immarg, i8* nocapture) #1


!llvm.module.flags = !{!0, !1, !2, !3}
!llvm.ident = !{!4}

!0 = !{i32 1, !"wchar_size", i32 4}
!1 = !{i32 7, !"PIC Level", i32 2}
!2 = !{i32 7, !"PIE Level", i32 2}
!3 = !{i32 7, !"uwtable", i32 1}
!4 = !{!"clang version 13.0.0"}
!5 = !{!6, !6, i64 0}
!6 = !{!"int", !7, i64 0}
!7 = !{!"omnipotent char", !8, i64 0}
!8 = !{!"Simple C/C++ TBAA"}
!9 = !{!10, !10, i64 0}
!10 = !{!"double", !7, i64 0}
!11 = distinct !{!11, !12}
!12 = !{!"llvm.loop.mustprogress"}
